target datalayout = "e-m:e-p270:32:32-p271:32:32-p272:64:64-i64:64-i128:128-f80:128-n8:16:32:64-S128"
target triple = "x86_64-pc-linux-gnu"

%"class.icu_77::UObject" = type { ptr }
%"class.icu_77::Locale" = type <{ %"class.icu_77::UObject", [12 x i8], [6 x i8], [4 x i8], [2 x i8], i32, [4 x i8], ptr, [157 x i8], [3 x i8], ptr, i8, [7 x i8] }>
%"class.icu_77::RelativeDateTimeFormatter" = type { %"class.icu_77::UObject", ptr, ptr, ptr, i32, i32, ptr, %"class.icu_77::Locale" }

; Function Attrs: mustprogress nounwind uwtable
define noundef signext i8 @_ZNK6icu_7725RelativeDateTimeFormatter23checkNoAdjustForContextER10UErrorCode(ptr noundef nonnull align 8 dereferenceable(272) %0, ptr noundef nonnull align 4 dereferenceable(4) %1) #0 align 2 {
  %3 = alloca i8, align 1
  %4 = alloca ptr, align 8
  %5 = alloca ptr, align 8
  store ptr %0, ptr %4, align 8, !tbaa !94
  store ptr %1, ptr %5, align 8, !tbaa !22
  %6 = load ptr, ptr %4, align 8
  %7 = getelementptr inbounds nuw %"class.icu_77::RelativeDateTimeFormatter", ptr %6, i32 0, i32 6
  %8 = load ptr, ptr %7, align 8, !tbaa !107
  %9 = icmp ne ptr %8, null
  br i1 %9, label %10, label %12

10:                                               ; preds = %2
  %11 = load ptr, ptr %5, align 8, !tbaa !22
  store i32 16, ptr %11, align 4, !tbaa !15
  store i8 0, ptr %3, align 1
  br label %13

12:                                               ; preds = %2
  store i8 1, ptr %3, align 1
  br label %13

13:                                               ; preds = %12, %10
  %14 = load i8, ptr %3, align 1
  ret i8 %14
}