; Function Attrs: mustprogress nofree norecurse nosync nounwind willreturn memory(argmem: readwrite) uwtable
define noundef signext range(i8 0, 2) i8 @_ZNK6icu_7725RelativeDateTimeFormatter23checkNoAdjustForContextER10UErrorCode(ptr noundef nonnull readonly align 8 captures(none) dereferenceable(272) %0, ptr noundef nonnull writeonly align 4 captures(none) dereferenceable(4) %1) local_unnamed_addr #12 align 2 {
  %3 = getelementptr inbounds nuw i8, ptr %0, i64 40
  %4 = load ptr, ptr %3, align 8, !tbaa !79
  %.not = icmp eq ptr %4, null
  br i1 %.not, label %6, label %5

5:                                                ; preds = %2
  store i32 16, ptr %1, align 4, !tbaa !13
  br label %6

6:                                                ; preds = %2, %5
  %.0 = phi i8 [ 0, %5 ], [ 1, %2 ]
  ret i8 %.0
}